target datalayout = "e-m:e-p270:32:32-p271:32:32-p272:64:64-i64:64-i128:128-f80:128-n8:16:32:64-S128"
target triple = "x86_64-pc-linux-gnu"

%"struct.cv::CvCaptureCAM_V4L" = type <{ %"class.cv::IVideoCapture", i32, i8, i8, [2 x i8], i32, i8, [3 x i8], %"class.std::__cxx11::basic_string", %"class.cv::Mat", i32, i32, i32, i32, i32, i32, i32, i8, i8, [2 x i8], i32, i8, [3 x i8], [11 x %"struct.cv::Buffer"], %struct.v4l2_capability, %struct.v4l2_input, %struct.v4l2_format, %struct.v4l2_requestbuffers, i32, i8, [7 x i8], %struct.timeval, i8, [7 x i8] }>
%"class.cv::IVideoCapture" = type { ptr }
%"class.std::__cxx11::basic_string" = type { %"struct.std::__cxx11::basic_string<char>::_Alloc_hider", i64, %union.anon }
%"struct.std::__cxx11::basic_string<char>::_Alloc_hider" = type { ptr }
%union.anon = type { i64, [8 x i8] }
%"class.cv::Mat" = type { i32, i32, i32, i32, ptr, ptr, ptr, ptr, ptr, ptr, %"struct.cv::MatSize", %"struct.cv::MatStep" }
%"struct.cv::MatSize" = type { ptr }
%"struct.cv::MatStep" = type { ptr, [2 x i64] }
%"struct.cv::Buffer" = type { [8 x %"struct.cv::Memory"], [8 x %struct.v4l2_plane], i32, %struct.v4l2_buffer }
%"struct.cv::Memory" = type { ptr, i64 }
%struct.v4l2_plane = type { i32, i32, %union.anon.0, i32, [11 x i32] }
%union.anon.0 = type { i64 }
%struct.v4l2_buffer = type { i32, i32, i32, i32, i32, %struct.timeval, %struct.v4l2_timecode, i32, i32, %union.anon.1, i32, i32, %union.anon.2 }
%struct.v4l2_timecode = type { i32, i32, i8, i8, i8, i8, [4 x i8] }
%union.anon.1 = type { i64 }
%union.anon.2 = type { i32 }
%struct.v4l2_capability = type { [16 x i8], [32 x i8], [32 x i8], i32, i32, i32, [3 x i32] }
%struct.v4l2_input = type { i32, [32 x i8], i32, i32, i32, i64, i32, i32, [3 x i32] }
%struct.v4l2_format = type { i32, %union.anon.3 }
%union.anon.3 = type { %struct.v4l2_window, [144 x i8] }
%struct.v4l2_window = type { %struct.v4l2_rect, i32, i32, ptr, i32, ptr, i8 }
%struct.v4l2_rect = type { i32, i32, i32, i32 }
%struct.v4l2_requestbuffers = type { i32, i32, i32, i32, [1 x i32] }
%struct.timeval = type { i64, i64 }

; Function Attrs: mustprogress uwtable
define hidden noundef zeroext i1 @_ZN2cv16CvCaptureCAM_V4L20setVideoInputChannelEv(ptr noundef nonnull align 8 dereferenceable(8736) %0) #4 align 2 {
  %2 = alloca i1, align 1
  %3 = alloca ptr, align 8
  %4 = alloca i32, align 4
  %5 = alloca i32, align 4
  %6 = alloca %struct.v4l2_input, align 8
  store ptr %0, ptr %3, align 8, !tbaa !3
  %7 = load ptr, ptr %3, align 8
  %8 = getelementptr inbounds nuw %"struct.cv::CvCaptureCAM_V4L", ptr %7, i32 0, i32 20
  %9 = load i32, ptr %8, align 8, !tbaa !46
  %10 = icmp slt i32 %9, 0
  br i1 %10, label %11, label %12

11:                                               ; preds = %1
  store i1 true, ptr %2, align 1
  br label %34

12:                                               ; preds = %1
  call void @llvm.lifetime.start.p0(i64 4, ptr %4) #3
  store i32 0, ptr %4, align 4, !tbaa !58
  %13 = call noundef zeroext i1 @_ZNK2cv16CvCaptureCAM_V4L8tryIoctlEmPvbi(ptr noundef nonnull align 8 dereferenceable(8736) %7, i64 noundef 2147767846, ptr noundef %4, i1 noundef zeroext true, i32 noundef 10)
  br i1 %13, label %15, label %14

14:                                               ; preds = %12
  store i1 false, ptr %2, align 1
  store i32 1, ptr %5, align 4
  br label %33

15:                                               ; preds = %12
  %16 = load i32, ptr %4, align 4, !tbaa !58
  %17 = getelementptr inbounds nuw %"struct.cv::CvCaptureCAM_V4L", ptr %7, i32 0, i32 20
  %18 = load i32, ptr %17, align 8, !tbaa !46
  %19 = icmp eq i32 %16, %18
  br i1 %19, label %20, label %21

20:                                               ; preds = %15
  store i1 true, ptr %2, align 1
  store i32 1, ptr %5, align 4
  br label %33

21:                                               ; preds = %15
  call void @llvm.lifetime.start.p0(i64 80, ptr %6) #3
  call void @llvm.memset.p0.i64(ptr align 8 %6, i8 0, i64 80, i1 false)
  %22 = getelementptr inbounds nuw %"struct.cv::CvCaptureCAM_V4L", ptr %7, i32 0, i32 25
  call void @llvm.memcpy.p0.p0.i64(ptr align 8 %22, ptr align 8 %6, i64 80, i1 false), !tbaa.struct !90
  call void @llvm.lifetime.end.p0(i64 80, ptr %6) #3
  %23 = getelementptr inbounds nuw %"struct.cv::CvCaptureCAM_V4L", ptr %7, i32 0, i32 20
  %24 = load i32, ptr %23, align 8, !tbaa !46
  %25 = getelementptr inbounds nuw %"struct.cv::CvCaptureCAM_V4L", ptr %7, i32 0, i32 25
  %26 = getelementptr inbounds nuw %struct.v4l2_input, ptr %25, i32 0, i32 0
  store i32 %24, ptr %26, align 8, !tbaa !92
  %27 = getelementptr inbounds nuw %"struct.cv::CvCaptureCAM_V4L", ptr %7, i32 0, i32 25
  %28 = call noundef zeroext i1 @_ZNK2cv16CvCaptureCAM_V4L8tryIoctlEmPvbi(ptr noundef nonnull align 8 dereferenceable(8736) %7, i64 noundef 3226490394, ptr noundef %27, i1 noundef zeroext true, i32 noundef 10)
  br i1 %28, label %30, label %29

29:                                               ; preds = %21
  store i1 false, ptr %2, align 1
  store i32 1, ptr %5, align 4
  br label %33

30:                                               ; preds = %21
  %31 = getelementptr inbounds nuw %"struct.cv::CvCaptureCAM_V4L", ptr %7, i32 0, i32 20
  %32 = call noundef zeroext i1 @_ZNK2cv16CvCaptureCAM_V4L8tryIoctlEmPvbi(ptr noundef nonnull align 8 dereferenceable(8736) %7, i64 noundef 3221509671, ptr noundef %31, i1 noundef zeroext true, i32 noundef 10)
  store i1 %32, ptr %2, align 1
  store i32 1, ptr %5, align 4
  br label %33

33:                                               ; preds = %30, %29, %20, %14
  call void @llvm.lifetime.end.p0(i64 4, ptr %4) #3
  br label %34

34:                                               ; preds = %33, %11
  %35 = load i1, ptr %2, align 1
  ret i1 %35
}