; Function Attrs: mustprogress uwtable
define hidden noundef zeroext i1 @_ZN2cv16CvCaptureCAM_V4L20setVideoInputChannelEv(ptr noundef nonnull align 8 dereferenceable(8736) %0) local_unnamed_addr #5 align 2 {
  %2 = alloca i32, align 4
  %3 = getelementptr inbounds nuw i8, ptr %0, i64 184
  %4 = load i32, ptr %3, align 8, !tbaa !42
  %5 = icmp slt i32 %4, 0
  br i1 %5, label %18, label %6

6:                                                ; preds = %1
  call void @llvm.lifetime.start.p0(i64 4, ptr nonnull %2) #29
  store i32 0, ptr %2, align 4, !tbaa !67
  %7 = call noundef zeroext i1 @_ZNK2cv16CvCaptureCAM_V4L8tryIoctlEmPvbi(ptr noundef nonnull align 8 dereferenceable(8736) %0, i64 noundef 2147767846, ptr noundef nonnull %2, i1 noundef zeroext true, i32 noundef 10)
  br i1 %7, label %8, label %17

8:                                                ; preds = %6
  %9 = load i32, ptr %2, align 4, !tbaa !67
  %10 = load i32, ptr %3, align 8, !tbaa !42
  %11 = icmp eq i32 %9, %10
  br i1 %11, label %17, label %12

12:                                               ; preds = %8
  %13 = getelementptr inbounds nuw i8, ptr %0, i64 8392
  call void @llvm.memset.p0.i64(ptr noundef nonnull align 8 dereferenceable(80) %13, i8 0, i64 80, i1 false)
  store i32 %10, ptr %13, align 8, !tbaa !151
  %14 = call noundef zeroext i1 @_ZNK2cv16CvCaptureCAM_V4L8tryIoctlEmPvbi(ptr noundef nonnull align 8 dereferenceable(8736) %0, i64 noundef 3226490394, ptr noundef nonnull %13, i1 noundef zeroext true, i32 noundef 10)
  br i1 %14, label %15, label %17

15:                                               ; preds = %12
  %16 = call noundef zeroext i1 @_ZNK2cv16CvCaptureCAM_V4L8tryIoctlEmPvbi(ptr noundef nonnull align 8 dereferenceable(8736) %0, i64 noundef 3221509671, ptr noundef nonnull %3, i1 noundef zeroext true, i32 noundef 10)
  br label %17

17:                                               ; preds = %12, %8, %6, %15
  %.1 = phi i1 [ %16, %15 ], [ false, %6 ], [ true, %8 ], [ false, %12 ]
  call void @llvm.lifetime.end.p0(i64 4, ptr nonnull %2) #29
  br label %18

18:                                               ; preds = %1, %17
  %.0 = phi i1 [ %.1, %17 ], [ true, %1 ]
  ret i1 %.0
}